target datalayout = "e-m:e-p270:32:32-p271:32:32-p272:64:64-i64:64-i128:128-f80:128-n8:16:32:64-S128"
target triple = "x86_64-unknown-linux-gnu"

%struct.MSIMessage = type { i64, i32 }
%struct.PCIDevice = type { %struct.DeviceState, i8, i8, ptr, ptr, ptr, ptr, ptr, i32, %struct.PCIReqIDCache, [64 x i8], [7 x %struct.PCIIORegion], %struct.AddressSpace, %struct.MemoryRegion, %struct.MemoryRegion, ptr, ptr, [3 x ptr], i8, i8, i32, i8, i32, ptr, ptr, ptr, ptr, ptr, ptr, %struct.MemoryRegion, %struct.MemoryRegion, %struct.MemoryRegion, ptr, i8, i32, i8, %struct.PCIExpressDevice, ptr, ptr, i32, i8, %struct.MemoryRegion, i32, ptr, ptr, ptr, ptr, ptr, i32 }
%struct.DeviceState = type { %struct.Object, ptr, ptr, i8, i8, i64, ptr, i32, i8, ptr, %struct.NamedGPIOListHead, %struct.NamedClockListHead, %struct.BusStateHead, i32, i32, i32, %struct.ResettableState, ptr, %struct.MemReentrancyGuard }
%struct.Object = type { ptr, ptr, ptr, i32, ptr }
%struct.NamedGPIOListHead = type { ptr }
%struct.NamedClockListHead = type { ptr }
%struct.BusStateHead = type { ptr }
%struct.ResettableState = type { i32, i8, i8 }
%struct.MemReentrancyGuard = type { i8 }
%struct.PCIReqIDCache = type { ptr, i32 }
%struct.PCIIORegion = type { i64, i64, i8, ptr, ptr }
%struct.AddressSpace = type { %struct.rcu_head, ptr, ptr, ptr, i32, i32, ptr, %union.anon, %union.anon.0 }
%struct.rcu_head = type { ptr, ptr }
%union.anon = type { %struct.QTailQLink }
%struct.QTailQLink = type { ptr, ptr }
%union.anon.0 = type { %struct.QTailQLink }
%struct.PCIExpressDevice = type { i8, i8, i8, i16, %struct.PCIEAERLog, i16, i16, i16, %struct.PCIESriovPF, %struct.PCIESriovVF }
%struct.PCIEAERLog = type { i16, i16, ptr }
%struct.PCIESriovPF = type { i16, [7 x i8], ptr, ptr }
%struct.PCIESriovVF = type { ptr, i16 }
%struct.MemoryRegion = type { %struct.Object, i8, i8, i8, i8, i8, i8, i8, i8, i8, i8, ptr, ptr, ptr, ptr, ptr, ptr, i32, i128, i64, ptr, i64, i8, i8, i8, i8, i8, ptr, i64, i32, %union.anon.1, %union.anon.2, %union.anon.3, ptr, i32, ptr, ptr, i8 }
%union.anon.1 = type { %struct.QTailQLink }
%union.anon.2 = type { %struct.QTailQLink }
%union.anon.3 = type { %struct.QTailQLink }

; Function Attrs: nounwind sspstrong uwtable
define internal void @stl_he_p(ptr noundef %ptr, i32 noundef %v) #0 {
entry:
  %ptr.addr = alloca ptr, align 8
  %v.addr = alloca i32, align 4
  store ptr %ptr, ptr %ptr.addr, align 8
  store i32 %v, ptr %v.addr, align 4
  %0 = load ptr, ptr %ptr.addr, align 8
  call void @llvm.memcpy.p0.p0.i64(ptr align 1 %0, ptr align 4 %v.addr, i64 4, i1 false)
  ret void
}

; Function Attrs: nounwind sspstrong uwtable
define internal void @stq_he_p(ptr noundef %ptr, i64 noundef %v) #0 {
entry:
  %ptr.addr = alloca ptr, align 8
  %v.addr = alloca i64, align 8
  store ptr %ptr, ptr %ptr.addr, align 8
  store i64 %v, ptr %v.addr, align 8
  %0 = load ptr, ptr %ptr.addr, align 8
  call void @llvm.memcpy.p0.p0.i64(ptr align 1 %0, ptr align 8 %v.addr, i64 8, i1 false)
  ret void
}

; Function Attrs: nounwind sspstrong uwtable
define internal void @stl_le_p(ptr noundef %ptr, i32 noundef %v) #0 {
entry:
  %ptr.addr = alloca ptr, align 8
  %v.addr = alloca i32, align 4
  store ptr %ptr, ptr %ptr.addr, align 8
  store i32 %v, ptr %v.addr, align 4
  %0 = load ptr, ptr %ptr.addr, align 8
  %1 = load i32, ptr %v.addr, align 4
  call void @stl_he_p(ptr noundef %0, i32 noundef %1)
  ret void
}

; Function Attrs: nounwind sspstrong uwtable
define internal void @stq_le_p(ptr noundef %ptr, i64 noundef %v) #0 {
entry:
  %ptr.addr = alloca ptr, align 8
  %v.addr = alloca i64, align 8
  store ptr %ptr, ptr %ptr.addr, align 8
  store i64 %v, ptr %v.addr, align 8
  %0 = load ptr, ptr %ptr.addr, align 8
  %1 = load i64, ptr %v.addr, align 8
  call void @stq_he_p(ptr noundef %0, i64 noundef %1)
  ret void
}

; Function Attrs: nounwind sspstrong uwtable
define internal void @pci_set_long(ptr noundef %config, i32 noundef %val) #0 {
entry:
  %config.addr = alloca ptr, align 8
  %val.addr = alloca i32, align 4
  store ptr %config, ptr %config.addr, align 8
  store i32 %val, ptr %val.addr, align 4
  %0 = load ptr, ptr %config.addr, align 8
  %1 = load i32, ptr %val.addr, align 4
  call void @stl_le_p(ptr noundef %0, i32 noundef %1)
  ret void
}

; Function Attrs: nounwind sspstrong uwtable
define internal void @pci_set_quad(ptr noundef %config, i64 noundef %val) #0 {
entry:
  %config.addr = alloca ptr, align 8
  %val.addr = alloca i64, align 8
  store ptr %config, ptr %config.addr, align 8
  store i64 %val, ptr %val.addr, align 8
  %0 = load ptr, ptr %config.addr, align 8
  %1 = load i64, ptr %val.addr, align 8
  call void @stq_le_p(ptr noundef %0, i64 noundef %1)
  ret void
}

; Function Attrs: nounwind sspstrong uwtable
define dso_local void @msix_set_message(ptr noundef %dev, i32 noundef %vector, i64 %msg.coerce0, i32 %msg.coerce1) #0 {
entry:
  %msg = alloca %struct.MSIMessage, align 8
  %dev.addr = alloca ptr, align 8
  %vector.addr = alloca i32, align 4
  %table_entry = alloca ptr, align 8
  %0 = getelementptr inbounds { i64, i32 }, ptr %msg, i32 0, i32 0
  store i64 %msg.coerce0, ptr %0, align 8
  %1 = getelementptr inbounds { i64, i32 }, ptr %msg, i32 0, i32 1
  store i32 %msg.coerce1, ptr %1, align 8
  store ptr %dev, ptr %dev.addr, align 8
  store i32 %vector, ptr %vector.addr, align 4
  %2 = load ptr, ptr %dev.addr, align 8
  %msix_table = getelementptr inbounds %struct.PCIDevice, ptr %2, i32 0, i32 23
  %3 = load ptr, ptr %msix_table, align 8
  %4 = load i32, ptr %vector.addr, align 4
  %mul = mul i32 %4, 16
  %idx.ext = sext i32 %mul to i64
  %add.ptr = getelementptr i8, ptr %3, i64 %idx.ext
  store ptr %add.ptr, ptr %table_entry, align 8
  %5 = load ptr, ptr %table_entry, align 8
  %add.ptr1 = getelementptr i8, ptr %5, i64 0
  %address = getelementptr inbounds %struct.MSIMessage, ptr %msg, i32 0, i32 0
  %6 = load i64, ptr %address, align 8
  call void @pci_set_quad(ptr noundef %add.ptr1, i64 noundef %6)
  %7 = load ptr, ptr %table_entry, align 8
  %add.ptr2 = getelementptr i8, ptr %7, i64 8
  %data = getelementptr inbounds %struct.MSIMessage, ptr %msg, i32 0, i32 1
  %8 = load i32, ptr %data, align 8
  call void @pci_set_long(ptr noundef %add.ptr2, i32 noundef %8)
  %9 = load ptr, ptr %table_entry, align 8
  %arrayidx = getelementptr i8, ptr %9, i64 12
  %10 = load i8, ptr %arrayidx, align 1
  %conv = zext i8 %10 to i32
  %and = and i32 %conv, -2
  %conv3 = trunc i32 %and to i8
  store i8 %conv3, ptr %arrayidx, align 1
  ret void
}