; Function Attrs: mustprogress nofree norecurse nosync nounwind sspstrong willreturn memory(readwrite, inaccessiblemem: none) uwtable
define dso_local void @msix_set_message(ptr noundef readonly captures(none) %dev, i32 noundef %vector, i64 %msg.coerce0, i32 %msg.coerce1) local_unnamed_addr #1 {
entry:
  %msix_table = getelementptr inbounds nuw i8, ptr %dev, i64 1272
  %0 = load ptr, ptr %msix_table, align 8
  %mul = shl i32 %vector, 4
  %idx.ext = sext i32 %mul to i64
  %add.ptr = getelementptr i8, ptr %0, i64 %idx.ext
  store i64 %msg.coerce0, ptr %add.ptr, align 1
  %add.ptr2 = getelementptr i8, ptr %add.ptr, i64 8
  store i32 %msg.coerce1, ptr %add.ptr2, align 1
  %arrayidx = getelementptr i8, ptr %add.ptr, i64 12
  %1 = load i8, ptr %arrayidx, align 1
  %2 = and i8 %1, -2
  store i8 %2, ptr %arrayidx, align 1
  ret void
}